target datalayout = "e-m:e-p270:32:32-p271:32:32-p272:64:64-i64:64-i128:128-f80:128-n8:16:32:64-S128"
target triple = "x86_64-pc-linux-gnu"

%struct.aead_chacha20_poly1305_ctx = type { [32 x i8], i8 }
%struct.evp_aead_ctx_st = type { ptr, ptr }

@.str = private unnamed_addr constant [138 x i8] c"generated/home/dtcxzyw/WorkSpace/Projects/compilers/llvm-opt-benchmark/bench/libquic/libquic/boringssl/crypto/cipher/e_chacha20poly1305.c\00", align 1

; Function Attrs: nounwind uwtable
define internal i32 @aead_chacha20_poly1305_init(ptr noundef %0, ptr noundef %1, i64 noundef %2, i64 noundef %3) #0 {
  %5 = alloca i32, align 4
  %6 = alloca ptr, align 8
  %7 = alloca ptr, align 8
  %8 = alloca i64, align 8
  %9 = alloca i64, align 8
  %10 = alloca ptr, align 8
  %11 = alloca i32, align 4
  store ptr %0, ptr %6, align 8, !tbaa !6
  store ptr %1, ptr %7, align 8, !tbaa !11
  store i64 %2, ptr %8, align 8, !tbaa !13
  store i64 %3, ptr %9, align 8, !tbaa !13
  call void @llvm.lifetime.start.p0(i64 8, ptr %10) #7
  %12 = load i64, ptr %9, align 8, !tbaa !13
  %13 = icmp eq i64 %12, 0
  br i1 %13, label %14, label %15

14:                                               ; preds = %4
  store i64 16, ptr %9, align 8, !tbaa !13
  br label %15

15:                                               ; preds = %14, %4
  %16 = load i64, ptr %9, align 8, !tbaa !13
  %17 = icmp ugt i64 %16, 16
  br i1 %17, label %18, label %19

18:                                               ; preds = %15
  call void @ERR_put_error(i32 noundef 30, i32 noundef 0, i32 noundef 117, ptr noundef @.str, i32 noundef 45)
  store i32 0, ptr %5, align 4
  store i32 1, ptr %11, align 4
  br label %41

19:                                               ; preds = %15
  %20 = load i64, ptr %8, align 8, !tbaa !13
  %21 = icmp ne i64 %20, 32
  br i1 %21, label %22, label %23

22:                                               ; preds = %19
  store i32 0, ptr %5, align 4
  store i32 1, ptr %11, align 4
  br label %41

23:                                               ; preds = %19
  %24 = call noalias ptr @malloc(i64 noundef 33) #8
  store ptr %24, ptr %10, align 8, !tbaa !15
  %25 = load ptr, ptr %10, align 8, !tbaa !15
  %26 = icmp eq ptr %25, null
  br i1 %26, label %27, label %28

27:                                               ; preds = %23
  store i32 0, ptr %5, align 4
  store i32 1, ptr %11, align 4
  br label %41

28:                                               ; preds = %23
  %29 = load ptr, ptr %10, align 8, !tbaa !15
  %30 = getelementptr inbounds nuw %struct.aead_chacha20_poly1305_ctx, ptr %29, i32 0, i32 0
  %31 = getelementptr inbounds [32 x i8], ptr %30, i64 0, i64 0
  %32 = load ptr, ptr %7, align 8, !tbaa !11
  %33 = load i64, ptr %8, align 8, !tbaa !13
  call void @llvm.memcpy.p0.p0.i64(ptr align 1 %31, ptr align 1 %32, i64 %33, i1 false)
  %34 = load i64, ptr %9, align 8, !tbaa !13
  %35 = trunc i64 %34 to i8
  %36 = load ptr, ptr %10, align 8, !tbaa !15
  %37 = getelementptr inbounds nuw %struct.aead_chacha20_poly1305_ctx, ptr %36, i32 0, i32 1
  store i8 %35, ptr %37, align 1, !tbaa !17
  %38 = load ptr, ptr %10, align 8, !tbaa !15
  %39 = load ptr, ptr %6, align 8, !tbaa !6
  %40 = getelementptr inbounds nuw %struct.evp_aead_ctx_st, ptr %39, i32 0, i32 1
  store ptr %38, ptr %40, align 8, !tbaa !19
  store i32 1, ptr %5, align 4
  store i32 1, ptr %11, align 4
  br label %41

41:                                               ; preds = %28, %27, %22, %18
  call void @llvm.lifetime.end.p0(i64 8, ptr %10) #7
  %42 = load i32, ptr %5, align 4
  ret i32 %42
}