; Function Attrs: nounwind uwtable
define internal range(i32 0, 2) i32 @aead_chacha20_poly1305_init(ptr noundef writeonly captures(none) %0, ptr noundef readonly captures(none) %1, i64 noundef %2, i64 noundef %3) #1 {
  %5 = icmp eq i64 %3, 0
  %spec.store.select = select i1 %5, i64 16, i64 %3
  %6 = icmp ugt i64 %spec.store.select, 16
  br i1 %6, label %7, label %8

7:                                                ; preds = %4
  tail call void @ERR_put_error(i32 noundef 30, i32 noundef 0, i32 noundef 117, ptr noundef nonnull @.str, i32 noundef 45) #8
  br label %16

8:                                                ; preds = %4
  %.not = icmp eq i64 %2, 32
  br i1 %.not, label %9, label %16

9:                                                ; preds = %8
  %10 = tail call noalias dereferenceable_or_null(33) ptr @malloc(i64 noundef 33) #9
  %11 = icmp eq ptr %10, null
  br i1 %11, label %16, label %12

12:                                               ; preds = %9
  tail call void @llvm.memcpy.p0.p0.i64(ptr noundef nonnull align 1 dereferenceable(32) %10, ptr noundef nonnull align 1 dereferenceable(32) %1, i64 32, i1 false)
  %13 = trunc nuw nsw i64 %spec.store.select to i8
  %14 = getelementptr inbounds nuw i8, ptr %10, i64 32
  store i8 %13, ptr %14, align 1, !tbaa !6
  %15 = getelementptr inbounds nuw i8, ptr %0, i64 8
  store ptr %10, ptr %15, align 8, !tbaa !10
  br label %16

16:                                               ; preds = %9, %8, %12, %7
  %.0 = phi i32 [ 0, %7 ], [ 1, %12 ], [ 0, %8 ], [ 0, %9 ]
  ret i32 %.0
}